; Function Attrs: mustprogress nounwind uwtable
define dso_local noundef ptr @_ZNK4absl17BadStatusOrAccess4whatEv(ptr noundef nonnull align 8 dereferenceable(56) %this) unnamed_addr #3 align 2 personality ptr @__gxx_personality_v0 {
entry:
  invoke void @_ZNK4absl17BadStatusOrAccess8InitWhatEv(ptr noundef nonnull align 8 dereferenceable(56) %this)
          to label %invoke.cont unwind label %terminate.lpad

invoke.cont:                                      ; preds = %entry
  %what_ = getelementptr inbounds i8, ptr %this, i64 24
  %call = tail call noundef ptr @_ZNKSt7__cxx1112basic_stringIcSt11char_traitsIcESaIcEE5c_strEv(ptr noundef nonnull align 8 dereferenceable(32) %what_) #13
  ret ptr %call

terminate.lpad:                                   ; preds = %entry
  %0 = landingpad { ptr, i32 }
          catch ptr null
  %1 = extractvalue { ptr, i32 } %0, 0
  tail call void @__clang_call_terminate(ptr %1) #14
  unreachable
}